; Function Attrs: mustprogress uwtable
define noundef double @_ZNK8QuantLib38AnalyticPartialTimeBarrierOptionEngine2e4Ev(ptr noundef nonnull align 8 dereferenceable(384) %this) local_unnamed_addr #9 align 2 {
entry:
  %process_.i = getelementptr inbounds nuw i8, ptr %this, i64 368
  %0 = load ptr, ptr %process_.i, align 8, !tbaa !48
  %cmp.not.i.i = icmp eq ptr %0, null
  br i1 %cmp.not.i.i, label %cond.false.i.i, label %_ZNK8QuantLib38AnalyticPartialTimeBarrierOptionEngine14coverEventTimeEv.exit, !prof !66

cond.false.i.i:                                   ; preds = %entry
  tail call void @_ZN5boost16assertion_failedEPKcS1_S1_l(ptr noundef nonnull @.str.22, ptr noundef nonnull @__PRETTY_FUNCTION__._ZNK5boost10shared_ptrIN8QuantLib30GeneralizedBlackScholesProcessEEptEv, ptr noundef nonnull @.str.23, i64 noundef 784)
  %.pre.i.i = load ptr, ptr %process_.i, align 8, !tbaa !48
  br label %_ZNK8QuantLib38AnalyticPartialTimeBarrierOptionEngine14coverEventTimeEv.exit

_ZNK8QuantLib38AnalyticPartialTimeBarrierOptionEngine14coverEventTimeEv.exit: ; preds = %entry, %cond.false.i.i
  %1 = phi ptr [ %0, %entry ], [ %.pre.i.i, %cond.false.i.i ]
  %coverEventDate.i = getelementptr inbounds nuw i8, ptr %this, i64 176
  %vtable.i = load ptr, ptr %1, align 8, !tbaa !33
  %vfn.i = getelementptr inbounds i8, ptr %vtable.i, i64 112
  %2 = load ptr, ptr %vfn.i, align 8
  %call2.i = tail call noundef double %2(ptr noundef nonnull align 8 dereferenceable(250) %1, ptr noundef nonnull align 8 dereferenceable(8) %coverEventDate.i)
  %call2 = tail call noundef double @_ZNK8QuantLib38AnalyticPartialTimeBarrierOptionEngine2e3Ev(ptr noundef nonnull align 8 dereferenceable(384) %this)
  %call3 = tail call noundef double @_ZNK8QuantLib38AnalyticPartialTimeBarrierOptionEngine10volatilityEd(ptr noundef nonnull align 8 dereferenceable(384) %this, double noundef %call2.i)
  %call4 = tail call double @sqrt(double noundef %call2.i) #30, !tbaa !94
  %neg = fneg double %call3
  %3 = tail call double @llvm.fmuladd.f64(double %neg, double %call4, double %call2)
  ret double %3
}